target datalayout = "e-m:e-p270:32:32-p271:32:32-p272:64:64-i64:64-i128:128-f80:128-n8:16:32:64-S128"
target triple = "x86_64-pc-linux-gnu"

%struct.WebPAnimEncoderOptions = type { %struct.WebPMuxAnimParams, i32, i32, i32, i32, i32, [4 x i32] }
%struct.WebPMuxAnimParams = type { i32, i32 }

; Function Attrs: nounwind uwtable
define internal void @DisableKeyframes(ptr noundef %0) #0 {
  %2 = alloca ptr, align 8
  store ptr %0, ptr %2, align 8, !tbaa !3
  %3 = load ptr, ptr %2, align 8, !tbaa !3
  %4 = getelementptr inbounds nuw %struct.WebPAnimEncoderOptions, ptr %3, i32 0, i32 3
  store i32 2147483647, ptr %4, align 4, !tbaa !47
  %5 = load ptr, ptr %2, align 8, !tbaa !3
  %6 = getelementptr inbounds nuw %struct.WebPAnimEncoderOptions, ptr %5, i32 0, i32 3
  %7 = load i32, ptr %6, align 4, !tbaa !47
  %8 = sub nsw i32 %7, 1
  %9 = load ptr, ptr %2, align 8, !tbaa !3
  %10 = getelementptr inbounds nuw %struct.WebPAnimEncoderOptions, ptr %9, i32 0, i32 2
  store i32 %8, ptr %10, align 4, !tbaa !48
  ret void
}

; Function Attrs: nounwind uwtable
define internal void @DefaultEncoderOptions(ptr noundef %0) #0 {
  %2 = alloca ptr, align 8
  store ptr %0, ptr %2, align 8, !tbaa !3
  %3 = load ptr, ptr %2, align 8, !tbaa !3
  %4 = getelementptr inbounds nuw %struct.WebPAnimEncoderOptions, ptr %3, i32 0, i32 0
  %5 = getelementptr inbounds nuw %struct.WebPMuxAnimParams, ptr %4, i32 0, i32 1
  store i32 0, ptr %5, align 4, !tbaa !10
  %6 = load ptr, ptr %2, align 8, !tbaa !3
  %7 = getelementptr inbounds nuw %struct.WebPAnimEncoderOptions, ptr %6, i32 0, i32 0
  %8 = getelementptr inbounds nuw %struct.WebPMuxAnimParams, ptr %7, i32 0, i32 0
  store i32 -1, ptr %8, align 4, !tbaa !13
  %9 = load ptr, ptr %2, align 8, !tbaa !3
  %10 = getelementptr inbounds nuw %struct.WebPAnimEncoderOptions, ptr %9, i32 0, i32 1
  store i32 0, ptr %10, align 4, !tbaa !14
  %11 = load ptr, ptr %2, align 8, !tbaa !3
  call void @DisableKeyframes(ptr noundef %11)
  %12 = load ptr, ptr %2, align 8, !tbaa !3
  %13 = getelementptr inbounds nuw %struct.WebPAnimEncoderOptions, ptr %12, i32 0, i32 4
  store i32 0, ptr %13, align 4, !tbaa !15
  %14 = load ptr, ptr %2, align 8, !tbaa !3
  %15 = getelementptr inbounds nuw %struct.WebPAnimEncoderOptions, ptr %14, i32 0, i32 5
  store i32 0, ptr %15, align 4, !tbaa !16
  ret void
}

; Function Attrs: nounwind uwtable
define i32 @WebPAnimEncoderOptionsInitInternal(ptr noundef %0, i32 noundef %1) #0 {
  %3 = alloca i32, align 4
  %4 = alloca ptr, align 8
  %5 = alloca i32, align 4
  store ptr %0, ptr %4, align 8, !tbaa !3
  store i32 %1, ptr %5, align 4, !tbaa !8
  %6 = load ptr, ptr %4, align 8, !tbaa !3
  %7 = icmp eq ptr %6, null
  br i1 %7, label %12, label %8

8:                                                ; preds = %2
  %9 = load i32, ptr %5, align 4, !tbaa !8
  %10 = ashr i32 %9, 8
  %11 = icmp ne i32 %10, 1
  br i1 %11, label %12, label %13

12:                                               ; preds = %8, %2
  store i32 0, ptr %3, align 4
  br label %15

13:                                               ; preds = %8
  %14 = load ptr, ptr %4, align 8, !tbaa !3
  call void @DefaultEncoderOptions(ptr noundef %14)
  store i32 1, ptr %3, align 4
  br label %15

15:                                               ; preds = %13, %12
  %16 = load i32, ptr %3, align 4
  ret i32 %16
}