; Function Attrs: mustprogress nofree norecurse nosync nounwind willreturn memory(argmem: write) uwtable
define range(i32 0, 2) i32 @WebPAnimEncoderOptionsInitInternal(ptr noundef writeonly captures(address_is_null) %0, i32 noundef %1) local_unnamed_addr #0 {
  %3 = icmp ne ptr %0, null
  %.mask = and i32 %1, -256
  %.not = icmp eq i32 %.mask, 256
  %or.cond = and i1 %3, %.not
  br i1 %or.cond, label %4, label %11

4:                                                ; preds = %2
  %5 = getelementptr inbounds nuw i8, ptr %0, i64 4
  store i32 0, ptr %5, align 4, !tbaa !3
  store i32 -1, ptr %0, align 4, !tbaa !9
  %6 = getelementptr inbounds nuw i8, ptr %0, i64 8
  store i32 0, ptr %6, align 4, !tbaa !10
  %7 = getelementptr inbounds nuw i8, ptr %0, i64 16
  store i32 2147483647, ptr %7, align 4, !tbaa !11
  %8 = getelementptr inbounds nuw i8, ptr %0, i64 12
  store i32 2147483646, ptr %8, align 4, !tbaa !12
  %9 = getelementptr inbounds nuw i8, ptr %0, i64 20
  store i32 0, ptr %9, align 4, !tbaa !13
  %10 = getelementptr inbounds nuw i8, ptr %0, i64 24
  store i32 0, ptr %10, align 4, !tbaa !14
  br label %11

11:                                               ; preds = %2, %4
  %.0 = phi i32 [ 1, %4 ], [ 0, %2 ]
  ret i32 %.0
}